target datalayout = "e-m:e-p270:32:32-p271:32:32-p272:64:64-i64:64-i128:128-f80:128-n8:16:32:64-S128"
target triple = "x86_64-pc-linux-gnu"

%struct.PLpgSQL_function = type { ptr, i32, i32, %struct.ItemPointerData, i32, i32, ptr, ptr, i32, i32, i8, i8, i8, i8, i8, i8, i32, [100 x i32], i32, i32, i32, i32, i32, i8, i32, i32, i32, ptr, i64, ptr, i32, i8, i8, ptr, i64 }
%struct.ItemPointerData = type { %struct.BlockIdData, i16 }
%struct.BlockIdData = type { i16, i16 }

; Function Attrs: nounwind uwtable
define hidden void @plpgsql_mark_local_assignment_targets(ptr noundef %0) #0 {
  %2 = alloca ptr, align 8
  %3 = alloca ptr, align 8
  %4 = alloca i32, align 4
  store ptr %0, ptr %2, align 8
  call void @llvm.lifetime.start.p0(i64 8, ptr %3) #8
  store ptr null, ptr %3, align 8
  call void @llvm.lifetime.start.p0(i64 4, ptr %4) #8
  store i32 0, ptr %4, align 4
  br label %5

5:                                                ; preds = %21, %1
  %6 = load i32, ptr %4, align 4
  %7 = load ptr, ptr %2, align 8
  %8 = getelementptr inbounds nuw %struct.PLpgSQL_function, ptr %7, i32 0, i32 16
  %9 = load i32, ptr %8, align 8
  %10 = icmp slt i32 %6, %9
  br i1 %10, label %12, label %11

11:                                               ; preds = %5
  call void @llvm.lifetime.end.p0(i64 4, ptr %4) #8
  br label %24

12:                                               ; preds = %5
  %13 = load ptr, ptr %3, align 8
  %14 = load ptr, ptr %2, align 8
  %15 = getelementptr inbounds nuw %struct.PLpgSQL_function, ptr %14, i32 0, i32 17
  %16 = load i32, ptr %4, align 4
  %17 = sext i32 %16 to i64
  %18 = getelementptr inbounds [100 x i32], ptr %15, i64 0, i64 %17
  %19 = load i32, ptr %18, align 4
  %20 = call ptr @bms_add_member(ptr noundef %13, i32 noundef %19)
  store ptr %20, ptr %3, align 8
  br label %21

21:                                               ; preds = %12
  %22 = load i32, ptr %4, align 4
  %23 = add i32 %22, 1
  store i32 %23, ptr %4, align 4
  br label %5, !llvm.loop !12

24:                                               ; preds = %11
  %25 = load ptr, ptr %2, align 8
  %26 = getelementptr inbounds nuw %struct.PLpgSQL_function, ptr %25, i32 0, i32 29
  %27 = load ptr, ptr %26, align 8
  %28 = load ptr, ptr %3, align 8
  call void @mark_stmt(ptr noundef %27, ptr noundef %28)
  %29 = load ptr, ptr %3, align 8
  call void @bms_free(ptr noundef %29)
  call void @llvm.lifetime.end.p0(i64 8, ptr %3) #8
  ret void
}