; Function Attrs: nounwind uwtable
define hidden void @plpgsql_mark_local_assignment_targets(ptr noundef readonly captures(none) %0) local_unnamed_addr #1 {
  %2 = getelementptr inbounds nuw i8, ptr %0, i64 64
  %3 = load i32, ptr %2, align 8
  %4 = icmp sgt i32 %3, 0
  br i1 %4, label %.lr.ph, label %._crit_edge

.lr.ph:                                           ; preds = %1
  %5 = getelementptr inbounds nuw i8, ptr %0, i64 68
  br label %8

._crit_edge:                                      ; preds = %8, %1
  %.08.lcssa = phi ptr [ null, %1 ], [ %11, %8 ]
  %6 = getelementptr inbounds nuw i8, ptr %0, i64 520
  %7 = load ptr, ptr %6, align 8
  tail call fastcc void @mark_stmt(ptr noundef %7, ptr noundef %.08.lcssa)
  tail call void @bms_free(ptr noundef %.08.lcssa) #16
  ret void

8:                                                ; preds = %.lr.ph, %8
  %indvars.iv = phi i64 [ 0, %.lr.ph ], [ %indvars.iv.next, %8 ]
  %.089 = phi ptr [ null, %.lr.ph ], [ %11, %8 ]
  %9 = getelementptr inbounds nuw [100 x i32], ptr %5, i64 0, i64 %indvars.iv
  %10 = load i32, ptr %9, align 4
  %11 = tail call ptr @bms_add_member(ptr noundef %.089, i32 noundef %10) #16
  %indvars.iv.next = add nuw nsw i64 %indvars.iv, 1
  %12 = load i32, ptr %2, align 8
  %13 = sext i32 %12 to i64
  %14 = icmp slt i64 %indvars.iv.next, %13
  br i1 %14, label %8, label %._crit_edge, !llvm.loop !11
}